; Function Attrs: mustprogress uwtable
define void @_ZNK32pxrInternal_v0_24__pxrReserved__9GfFrustum18ComputeLookAtPointEv(ptr dead_on_unwind noalias nocapture writable writeonly sret(%"class.pxrInternal_v0_24__pxrReserved__::GfVec3d") align 8 %0, ptr noundef nonnull align 8 dereferenceable(128) %1) local_unnamed_addr #0 align 2 {
  %3 = alloca %"class.pxrInternal_v0_24__pxrReserved__::GfVec3d", align 8
  %4 = alloca %"class.pxrInternal_v0_24__pxrReserved__::GfVec3d", align 8
  %5 = getelementptr inbounds nuw i8, ptr %1, i64 104
  %6 = load double, ptr %5, align 8
  call void @llvm.lifetime.start.p0(i64 24, ptr nonnull %3)
  %7 = getelementptr inbounds nuw i8, ptr %1, i64 24
  store double -0.000000e+00, ptr %3, align 8, !alias.scope !77, !noalias !80
  %8 = getelementptr inbounds i8, ptr %3, i64 8
  store double -0.000000e+00, ptr %8, align 8, !alias.scope !77, !noalias !80
  %9 = getelementptr inbounds i8, ptr %3, i64 16
  store double -1.000000e+00, ptr %9, align 8, !alias.scope !77, !noalias !80
  call void @_ZNK32pxrInternal_v0_24__pxrReserved__10GfRotation12TransformDirERKNS_7GfVec3dE(ptr dead_on_unwind nonnull writable sret(%"class.pxrInternal_v0_24__pxrReserved__::GfVec3d") align 8 %4, ptr noundef nonnull align 8 dereferenceable(32) %7, ptr noundef nonnull align 8 dereferenceable(24) %3)
  call void @llvm.lifetime.end.p0(i64 24, ptr nonnull %3)
  %.sroa.0.0.copyload.i.i = load double, ptr %4, align 8, !noalias !83
  %.sroa.4.0..sroa_idx.i.i = getelementptr inbounds i8, ptr %4, i64 8
  %.sroa.4.0.copyload.i.i = load double, ptr %.sroa.4.0..sroa_idx.i.i, align 8, !noalias !83
  %.sroa.6.0..sroa_idx.i.i = getelementptr inbounds i8, ptr %4, i64 16
  %.sroa.6.0.copyload.i.i = load double, ptr %.sroa.6.0..sroa_idx.i.i, align 8, !noalias !83
  %10 = fmul double %6, %.sroa.0.0.copyload.i.i
  %11 = fmul double %6, %.sroa.4.0.copyload.i.i
  %12 = fmul double %6, %.sroa.6.0.copyload.i.i
  call void @llvm.experimental.noalias.scope.decl(metadata !88)
  %.sroa.0.0.copyload.i = load double, ptr %1, align 8, !noalias !88
  %.sroa.4.0..sroa_idx.i = getelementptr inbounds i8, ptr %1, i64 8
  %.sroa.4.0.copyload.i = load double, ptr %.sroa.4.0..sroa_idx.i, align 8, !noalias !88
  %.sroa.6.0..sroa_idx.i = getelementptr inbounds i8, ptr %1, i64 16
  %.sroa.6.0.copyload.i = load double, ptr %.sroa.6.0..sroa_idx.i, align 8, !noalias !88
  %13 = fadd double %10, %.sroa.0.0.copyload.i
  %14 = fadd double %11, %.sroa.4.0.copyload.i
  %15 = fadd double %12, %.sroa.6.0.copyload.i
  store double %13, ptr %0, align 8, !alias.scope !88
  %.sroa.4.0..sroa_idx3.i = getelementptr inbounds i8, ptr %0, i64 8
  store double %14, ptr %.sroa.4.0..sroa_idx3.i, align 8, !alias.scope !88
  %.sroa.6.0..sroa_idx5.i = getelementptr inbounds i8, ptr %0, i64 16
  store double %15, ptr %.sroa.6.0..sroa_idx5.i, align 8, !alias.scope !88
  ret void
}